target datalayout = "e-m:e-p270:32:32-p271:32:32-p272:64:64-i64:64-i128:128-f80:128-n8:16:32:64-S128"
target triple = "x86_64-pc-linux-gnu"

%struct.strbuf = type { i64, i64, ptr }
%struct.ipc_server_data = type { i32, ptr, ptr, %struct.strbuf, ptr, ptr, %union.pthread_mutex_t, %union.pthread_cond_t, ptr, i32, i32, i32, i32, i32, i32 }
%union.pthread_mutex_t = type { %struct.__pthread_mutex_s }
%struct.__pthread_mutex_s = type { i32, i32, i32, i32, i32, i16, i16, %struct.__pthread_internal_list }
%struct.__pthread_internal_list = type { ptr, ptr }
%union.pthread_cond_t = type { %struct.__pthread_cond_s }
%struct.__pthread_cond_s = type { %union.__atomic_wide_counter, %union.__atomic_wide_counter, [2 x i32], [2 x i32], i32, i32, [2 x i32] }
%union.__atomic_wide_counter = type { i64 }
%struct.ipc_accept_thread_data = type { i32, ptr, ptr, i32, i32, i64 }
%struct.ipc_worker_thread_data = type { i32, ptr, ptr, i64 }

@.str = private unnamed_addr constant [36 x i8] c"compat/simple-ipc/ipc-unix-socket.c\00", align 1
@.str.14 = private unnamed_addr constant [43 x i8] c"ipc-server: accept-thread stopped for '%s'\00", align 1

; Function Attrs: nounwind uwtable
define dso_local i32 @ipc_server_await(ptr noundef %0) #0 {
  %2 = alloca ptr, align 8
  %3 = alloca ptr, align 8
  store ptr %0, ptr %2, align 8, !tbaa !44
  %4 = load ptr, ptr %2, align 8, !tbaa !44
  %5 = getelementptr inbounds nuw %struct.ipc_server_data, ptr %4, i32 0, i32 4
  %6 = load ptr, ptr %5, align 8, !tbaa !54
  %7 = getelementptr inbounds nuw %struct.ipc_accept_thread_data, ptr %6, i32 0, i32 5
  %8 = load i64, ptr %7, align 8, !tbaa !76
  %9 = call i32 @pthread_join(i64 noundef %8, ptr noundef null)
  %10 = load ptr, ptr %2, align 8, !tbaa !44
  %11 = getelementptr inbounds nuw %struct.ipc_server_data, ptr %10, i32 0, i32 13
  %12 = load i32, ptr %11, align 8, !tbaa !71
  %13 = icmp ne i32 %12, 0
  br i1 %13, label %19, label %14

14:                                               ; preds = %1
  %15 = load ptr, ptr %2, align 8, !tbaa !44
  %16 = getelementptr inbounds nuw %struct.ipc_server_data, ptr %15, i32 0, i32 3
  %17 = getelementptr inbounds nuw %struct.strbuf, ptr %16, i32 0, i32 2
  %18 = load ptr, ptr %17, align 8, !tbaa !77
  call void (ptr, i32, ptr, ...) @BUG_fl(ptr noundef @.str, i32 noundef 993, ptr noundef @.str.14, ptr noundef %18) #12
  unreachable

19:                                               ; preds = %1
  br label %20

20:                                               ; preds = %25, %19
  %21 = load ptr, ptr %2, align 8, !tbaa !44
  %22 = getelementptr inbounds nuw %struct.ipc_server_data, ptr %21, i32 0, i32 5
  %23 = load ptr, ptr %22, align 8, !tbaa !65
  %24 = icmp ne ptr %23, null
  br i1 %24, label %25, label %39

25:                                               ; preds = %20
  call void @llvm.lifetime.start.p0(i64 8, ptr %3) #10
  %26 = load ptr, ptr %2, align 8, !tbaa !44
  %27 = getelementptr inbounds nuw %struct.ipc_server_data, ptr %26, i32 0, i32 5
  %28 = load ptr, ptr %27, align 8, !tbaa !65
  store ptr %28, ptr %3, align 8, !tbaa !61
  %29 = load ptr, ptr %3, align 8, !tbaa !61
  %30 = getelementptr inbounds nuw %struct.ipc_worker_thread_data, ptr %29, i32 0, i32 3
  %31 = load i64, ptr %30, align 8, !tbaa !78
  %32 = call i32 @pthread_join(i64 noundef %31, ptr noundef null)
  %33 = load ptr, ptr %3, align 8, !tbaa !61
  %34 = getelementptr inbounds nuw %struct.ipc_worker_thread_data, ptr %33, i32 0, i32 1
  %35 = load ptr, ptr %34, align 8, !tbaa !66
  %36 = load ptr, ptr %2, align 8, !tbaa !44
  %37 = getelementptr inbounds nuw %struct.ipc_server_data, ptr %36, i32 0, i32 5
  store ptr %35, ptr %37, align 8, !tbaa !65
  %38 = load ptr, ptr %3, align 8, !tbaa !61
  call void @free(ptr noundef %38) #10
  call void @llvm.lifetime.end.p0(i64 8, ptr %3) #10
  br label %20, !llvm.loop !79

39:                                               ; preds = %20
  %40 = load ptr, ptr %2, align 8, !tbaa !44
  %41 = getelementptr inbounds nuw %struct.ipc_server_data, ptr %40, i32 0, i32 14
  store i32 1, ptr %41, align 4, !tbaa !80
  ret i32 0
}