; Function Attrs: nounwind uwtable
define dso_local noundef i32 @ipc_server_await(ptr noundef captures(none) %0) local_unnamed_addr #0 {
  %2 = getelementptr inbounds nuw i8, ptr %0, i64 48
  %3 = load ptr, ptr %2, align 8, !tbaa !41
  %4 = getelementptr inbounds nuw i8, ptr %3, i64 32
  %5 = load i64, ptr %4, align 8, !tbaa !68
  %6 = tail call i32 @pthread_join(i64 noundef %5, ptr noundef null) #13
  %7 = getelementptr inbounds nuw i8, ptr %0, i64 176
  %8 = load i32, ptr %7, align 8, !tbaa !59
  %.not = icmp eq i32 %8, 0
  br i1 %.not, label %11, label %.preheader

.preheader:                                       ; preds = %1
  %9 = getelementptr inbounds nuw i8, ptr %0, i64 56
  %10 = load ptr, ptr %9, align 8, !tbaa !51
  %.not1011 = icmp eq ptr %10, null
  br i1 %.not1011, label %._crit_edge, label %.lr.ph

11:                                               ; preds = %1
  %12 = getelementptr inbounds nuw i8, ptr %0, i64 40
  %13 = load ptr, ptr %12, align 8, !tbaa !69
  tail call void (ptr, i32, ptr, ...) @BUG_fl(ptr noundef nonnull @.str, i32 noundef 993, ptr noundef nonnull @.str.14, ptr noundef %13) #16
  unreachable

.lr.ph:                                           ; preds = %.preheader, %.lr.ph
  %14 = phi ptr [ %20, %.lr.ph ], [ %10, %.preheader ]
  %15 = getelementptr inbounds nuw i8, ptr %14, i64 24
  %16 = load i64, ptr %15, align 8, !tbaa !70
  %17 = tail call i32 @pthread_join(i64 noundef %16, ptr noundef null) #13
  %18 = getelementptr inbounds nuw i8, ptr %14, i64 8
  %19 = load ptr, ptr %18, align 8, !tbaa !52
  store ptr %19, ptr %9, align 8, !tbaa !51
  tail call void @free(ptr noundef nonnull %14) #13
  %20 = load ptr, ptr %9, align 8, !tbaa !51
  %.not10 = icmp eq ptr %20, null
  br i1 %.not10, label %._crit_edge, label %.lr.ph, !llvm.loop !71

._crit_edge:                                      ; preds = %.lr.ph, %.preheader
  %21 = getelementptr inbounds nuw i8, ptr %0, i64 180
  store i32 1, ptr %21, align 4, !tbaa !72
  ret i32 0
}